target datalayout = "e-m:e-p270:32:32-p271:32:32-p272:64:64-i64:64-i128:128-f80:128-n8:16:32:64-S128"
target triple = "x86_64-pc-linux-gnu"

%"class.icu_77::Locale" = type <{ %"class.icu_77::UObject", [12 x i8], [6 x i8], [4 x i8], [2 x i8], i32, [4 x i8], ptr, [157 x i8], [3 x i8], ptr, i8, [7 x i8] }>
%"class.icu_77::UObject" = type { ptr }

; Function Attrs: mustprogress uwtable
define noundef ptr @_ZN6icu_7716ICULocaleService16registerInstanceEPNS_7UObjectERKNS_13UnicodeStringEaR10UErrorCode(ptr noundef nonnull align 8 dereferenceable(408) %0, ptr noundef %1, ptr noundef nonnull align 8 dereferenceable(64) %2, i8 noundef signext %3, ptr noundef nonnull align 4 dereferenceable(4) %4) unnamed_addr #1 align 2 personality ptr @__gxx_personality_v0 {
  %6 = alloca ptr, align 8
  %7 = alloca ptr, align 8
  %8 = alloca ptr, align 8
  %9 = alloca i8, align 1
  %10 = alloca ptr, align 8
  %11 = alloca %"class.icu_77::Locale", align 8
  %12 = alloca ptr, align 8
  %13 = alloca i32, align 4
  store ptr %0, ptr %6, align 8, !tbaa !23
  store ptr %1, ptr %7, align 8, !tbaa !32
  store ptr %2, ptr %8, align 8, !tbaa !27
  store i8 %3, ptr %9, align 1, !tbaa !29
  store ptr %4, ptr %10, align 8, !tbaa !22
  %14 = load ptr, ptr %6, align 8
  call void @llvm.lifetime.start.p0(i64 224, ptr %11) #11
  call void @_ZN6icu_776LocaleC1Ev(ptr noundef nonnull align 8 dereferenceable(217) %11)
  %15 = load ptr, ptr %8, align 8, !tbaa !27
  %16 = invoke noundef nonnull align 8 dereferenceable(217) ptr @_ZN6icu_7713LocaleUtility18initLocaleFromNameERKNS_13UnicodeStringERNS_6LocaleE(ptr noundef nonnull align 8 dereferenceable(64) %15, ptr noundef nonnull align 8 dereferenceable(217) %11)
          to label %17 unwind label %28

17:                                               ; preds = %5
  %18 = load ptr, ptr %7, align 8, !tbaa !32
  %19 = load i8, ptr %9, align 1, !tbaa !29
  %20 = icmp ne i8 %19, 0
  %21 = select i1 %20, i32 0, i32 1
  %22 = load ptr, ptr %10, align 8, !tbaa !22
  %23 = load ptr, ptr %14, align 8, !tbaa !25
  %24 = getelementptr inbounds ptr, ptr %23, i64 21
  %25 = load ptr, ptr %24, align 8
  %26 = invoke noundef ptr %25(ptr noundef nonnull align 8 dereferenceable(408) %14, ptr noundef %18, ptr noundef nonnull align 8 dereferenceable(217) %11, i32 noundef -1, i32 noundef %21, ptr noundef nonnull align 4 dereferenceable(4) %22)
          to label %27 unwind label %28

27:                                               ; preds = %17
  call void @_ZN6icu_776LocaleD1Ev(ptr noundef nonnull align 8 dereferenceable(217) %11) #11
  call void @llvm.lifetime.end.p0(i64 224, ptr %11) #11
  ret ptr %26

28:                                               ; preds = %17, %5
  %29 = landingpad { ptr, i32 }
          cleanup
  %30 = extractvalue { ptr, i32 } %29, 0
  store ptr %30, ptr %12, align 8
  %31 = extractvalue { ptr, i32 } %29, 1
  store i32 %31, ptr %13, align 4
  call void @_ZN6icu_776LocaleD1Ev(ptr noundef nonnull align 8 dereferenceable(217) %11) #11
  call void @llvm.lifetime.end.p0(i64 224, ptr %11) #11
  br label %32

32:                                               ; preds = %28
  %33 = load ptr, ptr %12, align 8
  %34 = load i32, ptr %13, align 4
  %35 = insertvalue { ptr, i32 } poison, ptr %33, 0
  %36 = insertvalue { ptr, i32 } %35, i32 %34, 1
  resume { ptr, i32 } %36
}