; Function Attrs: mustprogress uwtable
define noundef ptr @_ZN6icu_7716ICULocaleService16registerInstanceEPNS_7UObjectERKNS_13UnicodeStringEaR10UErrorCode(ptr noundef nonnull align 8 dereferenceable(408) %0, ptr noundef %1, ptr noundef nonnull align 8 dereferenceable(64) %2, i8 noundef signext %3, ptr noundef nonnull align 4 dereferenceable(4) %4) unnamed_addr #1 align 2 personality ptr @__gxx_personality_v0 {
  %6 = alloca %"class.icu_77::Locale", align 8
  call void @llvm.lifetime.start.p0(i64 224, ptr nonnull %6) #15
  call void @_ZN6icu_776LocaleC1Ev(ptr noundef nonnull align 8 dereferenceable(217) %6)
  %7 = invoke noundef nonnull align 8 dereferenceable(217) ptr @_ZN6icu_7713LocaleUtility18initLocaleFromNameERKNS_13UnicodeStringERNS_6LocaleE(ptr noundef nonnull align 8 dereferenceable(64) %2, ptr noundef nonnull align 8 dereferenceable(217) %6)
          to label %8 unwind label %15

8:                                                ; preds = %5
  %.not = icmp eq i8 %3, 0
  %9 = zext i1 %.not to i32
  %10 = load ptr, ptr %0, align 8, !tbaa !15
  %11 = getelementptr inbounds nuw i8, ptr %10, i64 168
  %12 = load ptr, ptr %11, align 8
  %13 = invoke noundef ptr %12(ptr noundef nonnull align 8 dereferenceable(408) %0, ptr noundef %1, ptr noundef nonnull align 8 dereferenceable(217) %6, i32 noundef -1, i32 noundef %9, ptr noundef nonnull align 4 dereferenceable(4) %4)
          to label %14 unwind label %15

14:                                               ; preds = %8
  call void @_ZN6icu_776LocaleD1Ev(ptr noundef nonnull align 8 dereferenceable(217) %6) #15
  call void @llvm.lifetime.end.p0(i64 224, ptr nonnull %6) #15
  ret ptr %13

15:                                               ; preds = %8, %5
  %16 = landingpad { ptr, i32 }
          cleanup
  call void @_ZN6icu_776LocaleD1Ev(ptr noundef nonnull align 8 dereferenceable(217) %6) #15
  call void @llvm.lifetime.end.p0(i64 224, ptr nonnull %6) #15
  resume { ptr, i32 } %16
}